target datalayout = "e-m:e-p270:32:32-p271:32:32-p272:64:64-i64:64-i128:128-f80:128-n8:16:32:64-S128"
target triple = "x86_64-pc-linux-gnu"

%struct.expert_field = type { i32, i32 }
%struct.ext_value_string_t = type { i32, ptr, i32 }

@ansi_a_elem_1_strings = global ptr null, align 8
@.str.282 = private unnamed_addr constant [1 x i8] zeroinitializer, align 1
@ei_ansi_a_extraneous_data = internal global %struct.expert_field zeroinitializer, align 4
@ei_ansi_a_missing_mand_elem = internal global %struct.expert_field zeroinitializer, align 4
@.str.1753 = private unnamed_addr constant [71 x i8] c"Missing Mandatory element (0x%02x) %s%s, rest of dissection is suspect\00", align 1

; Function Attrs: null_pointer_is_valid sspstrong uwtable
define internal void @bsmap_adds_page(ptr noundef %0, ptr noundef %1, ptr noundef %2, i32 noundef %3, i32 noundef %4, ptr noundef %5) #1 {
  %7 = alloca ptr, align 8
  %8 = alloca ptr, align 8
  %9 = alloca ptr, align 8
  %10 = alloca i32, align 4
  %11 = alloca i32, align 4
  %12 = alloca ptr, align 8
  %13 = alloca i32, align 4
  %14 = alloca i32, align 4
  %15 = alloca i32, align 4
  %16 = alloca i32, align 4
  store ptr %0, ptr %7, align 8
  store ptr %1, ptr %8, align 8
  store ptr %2, ptr %9, align 8
  store i32 %3, ptr %10, align 4
  store i32 %4, ptr %11, align 4
  store ptr %5, ptr %12, align 8
  call void @llvm.lifetime.start.p0(i64 4, ptr %13) #8
  call void @llvm.lifetime.start.p0(i64 4, ptr %14) #8
  call void @llvm.lifetime.start.p0(i64 4, ptr %15) #8
  %17 = load i32, ptr %10, align 4
  store i32 %17, ptr %13, align 4
  %18 = load i32, ptr %11, align 4
  store i32 %18, ptr %15, align 4
  %19 = load ptr, ptr %7, align 8
  %20 = load ptr, ptr %8, align 8
  %21 = load ptr, ptr %9, align 8
  %22 = load i32, ptr %13, align 4
  %23 = load i32, ptr %15, align 4
  %24 = load ptr, ptr %12, align 8
  %25 = call zeroext i16 @elem_tlv(ptr noundef %19, ptr noundef %20, ptr noundef %21, i32 noundef 47, i32 noundef %22, i32 noundef %23, ptr noundef @.str.282, ptr noundef %24)
  %26 = zext i16 %25 to i32
  store i32 %26, ptr %14, align 4
  %27 = icmp ugt i32 %26, 0
  br i1 %27, label %28, label %35

28:                                               ; preds = %6
  %29 = load i32, ptr %14, align 4
  %30 = load i32, ptr %13, align 4
  %31 = add i32 %30, %29
  store i32 %31, ptr %13, align 4
  %32 = load i32, ptr %14, align 4
  %33 = load i32, ptr %15, align 4
  %34 = sub i32 %33, %32
  store i32 %34, ptr %15, align 4
  br label %49

35:                                               ; preds = %6
  %36 = load ptr, ptr %9, align 8
  %37 = load ptr, ptr %8, align 8
  %38 = load ptr, ptr %7, align 8
  %39 = load i32, ptr %13, align 4
  %40 = load ptr, ptr @ansi_a_elem_1_strings, align 8
  %41 = getelementptr %struct.ext_value_string_t, ptr %40, i64 47
  %42 = getelementptr inbounds nuw %struct.ext_value_string_t, ptr %41, i32 0, i32 0
  %43 = load i32, ptr %42, align 8
  %44 = load ptr, ptr @ansi_a_elem_1_strings, align 8
  %45 = getelementptr %struct.ext_value_string_t, ptr %44, i64 47
  %46 = getelementptr inbounds nuw %struct.ext_value_string_t, ptr %45, i32 0, i32 1
  %47 = load ptr, ptr %46, align 8
  %48 = call ptr (ptr, ptr, ptr, ptr, i32, i32, ptr, ...) @proto_tree_add_expert_format(ptr noundef %36, ptr noundef %37, ptr noundef @ei_ansi_a_missing_mand_elem, ptr noundef %38, i32 noundef %39, i32 noundef 0, ptr noundef @.str.1753, i32 noundef %43, ptr noundef %47, ptr noundef @.str.282)
  br label %49

49:                                               ; preds = %35, %28
  %50 = load i32, ptr %15, align 4
  %51 = icmp ule i32 %50, 0
  br i1 %51, label %52, label %53

52:                                               ; preds = %49
  store i32 1, ptr %16, align 4
  br label %249

53:                                               ; preds = %49
  %54 = load ptr, ptr %7, align 8
  %55 = load ptr, ptr %8, align 8
  %56 = load ptr, ptr %9, align 8
  %57 = load i32, ptr %13, align 4
  %58 = load i32, ptr %15, align 4
  %59 = load ptr, ptr %12, align 8
  %60 = call zeroext i16 @elem_tlv(ptr noundef %54, ptr noundef %55, ptr noundef %56, i32 noundef 1, i32 noundef %57, i32 noundef %58, ptr noundef @.str.282, ptr noundef %59)
  %61 = zext i16 %60 to i32
  store i32 %61, ptr %14, align 4
  %62 = icmp ugt i32 %61, 0
  br i1 %62, label %63, label %70

63:                                               ; preds = %53
  %64 = load i32, ptr %14, align 4
  %65 = load i32, ptr %13, align 4
  %66 = add i32 %65, %64
  store i32 %66, ptr %13, align 4
  %67 = load i32, ptr %14, align 4
  %68 = load i32, ptr %15, align 4
  %69 = sub i32 %68, %67
  store i32 %69, ptr %15, align 4
  br label %84

70:                                               ; preds = %53
  %71 = load ptr, ptr %9, align 8
  %72 = load ptr, ptr %8, align 8
  %73 = load ptr, ptr %7, align 8
  %74 = load i32, ptr %13, align 4
  %75 = load ptr, ptr @ansi_a_elem_1_strings, align 8
  %76 = getelementptr %struct.ext_value_string_t, ptr %75, i64 1
  %77 = getelementptr inbounds nuw %struct.ext_value_string_t, ptr %76, i32 0, i32 0
  %78 = load i32, ptr %77, align 8
  %79 = load ptr, ptr @ansi_a_elem_1_strings, align 8
  %80 = getelementptr %struct.ext_value_string_t, ptr %79, i64 1
  %81 = getelementptr inbounds nuw %struct.ext_value_string_t, ptr %80, i32 0, i32 1
  %82 = load ptr, ptr %81, align 8
  %83 = call ptr (ptr, ptr, ptr, ptr, i32, i32, ptr, ...) @proto_tree_add_expert_format(ptr noundef %71, ptr noundef %72, ptr noundef @ei_ansi_a_missing_mand_elem, ptr noundef %73, i32 noundef %74, i32 noundef 0, ptr noundef @.str.1753, i32 noundef %78, ptr noundef %82, ptr noundef @.str.282)
  br label %84

84:                                               ; preds = %70, %63
  %85 = load i32, ptr %15, align 4
  %86 = icmp ule i32 %85, 0
  br i1 %86, label %87, label %88

87:                                               ; preds = %84
  store i32 1, ptr %16, align 4
  br label %249

88:                                               ; preds = %84
  %89 = load ptr, ptr %7, align 8
  %90 = load ptr, ptr %8, align 8
  %91 = load ptr, ptr %9, align 8
  %92 = load i32, ptr %13, align 4
  %93 = load ptr, ptr %12, align 8
  %94 = call zeroext i16 @elem_tv(ptr noundef %89, ptr noundef %90, ptr noundef %91, i32 noundef 78, i32 noundef %92, ptr noundef @.str.282, ptr noundef %93)
  %95 = zext i16 %94 to i32
  store i32 %95, ptr %14, align 4
  %96 = icmp ugt i32 %95, 0
  br i1 %96, label %97, label %104

97:                                               ; preds = %88
  %98 = load i32, ptr %14, align 4
  %99 = load i32, ptr %13, align 4
  %100 = add i32 %99, %98
  store i32 %100, ptr %13, align 4
  %101 = load i32, ptr %14, align 4
  %102 = load i32, ptr %15, align 4
  %103 = sub i32 %102, %101
  store i32 %103, ptr %15, align 4
  br label %104

104:                                              ; preds = %97, %88
  %105 = load i32, ptr %15, align 4
  %106 = icmp ule i32 %105, 0
  br i1 %106, label %107, label %108

107:                                              ; preds = %104
  store i32 1, ptr %16, align 4
  br label %249

108:                                              ; preds = %104
  %109 = load ptr, ptr %7, align 8
  %110 = load ptr, ptr %8, align 8
  %111 = load ptr, ptr %9, align 8
  %112 = load i32, ptr %13, align 4
  %113 = load i32, ptr %15, align 4
  %114 = load ptr, ptr %12, align 8
  %115 = call zeroext i16 @elem_tlv(ptr noundef %109, ptr noundef %110, ptr noundef %111, i32 noundef 19, i32 noundef %112, i32 noundef %113, ptr noundef @.str.282, ptr noundef %114)
  %116 = zext i16 %115 to i32
  store i32 %116, ptr %14, align 4
  %117 = icmp ugt i32 %116, 0
  br i1 %117, label %118, label %125

118:                                              ; preds = %108
  %119 = load i32, ptr %14, align 4
  %120 = load i32, ptr %13, align 4
  %121 = add i32 %120, %119
  store i32 %121, ptr %13, align 4
  %122 = load i32, ptr %14, align 4
  %123 = load i32, ptr %15, align 4
  %124 = sub i32 %123, %122
  store i32 %124, ptr %15, align 4
  br label %125

125:                                              ; preds = %118, %108
  %126 = load i32, ptr %15, align 4
  %127 = icmp ule i32 %126, 0
  br i1 %127, label %128, label %129

128:                                              ; preds = %125
  store i32 1, ptr %16, align 4
  br label %249

129:                                              ; preds = %125
  %130 = load ptr, ptr %7, align 8
  %131 = load ptr, ptr %8, align 8
  %132 = load ptr, ptr %9, align 8
  %133 = load i32, ptr %13, align 4
  %134 = load ptr, ptr %12, align 8
  %135 = call zeroext i16 @elem_tv(ptr noundef %130, ptr noundef %131, ptr noundef %132, i32 noundef 74, i32 noundef %133, ptr noundef @.str.282, ptr noundef %134)
  %136 = zext i16 %135 to i32
  store i32 %136, ptr %14, align 4
  %137 = icmp ugt i32 %136, 0
  br i1 %137, label %138, label %145

138:                                              ; preds = %129
  %139 = load i32, ptr %14, align 4
  %140 = load i32, ptr %13, align 4
  %141 = add i32 %140, %139
  store i32 %141, ptr %13, align 4
  %142 = load i32, ptr %14, align 4
  %143 = load i32, ptr %15, align 4
  %144 = sub i32 %143, %142
  store i32 %144, ptr %15, align 4
  br label %145

145:                                              ; preds = %138, %129
  %146 = load i32, ptr %15, align 4
  %147 = icmp ule i32 %146, 0
  br i1 %147, label %148, label %149

148:                                              ; preds = %145
  store i32 1, ptr %16, align 4
  br label %249

149:                                              ; preds = %145
  %150 = load ptr, ptr %7, align 8
  %151 = load ptr, ptr %8, align 8
  %152 = load ptr, ptr %9, align 8
  %153 = load i32, ptr %13, align 4
  %154 = load i32, ptr %15, align 4
  %155 = load ptr, ptr %12, align 8
  %156 = call zeroext i16 @elem_tlv(ptr noundef %150, ptr noundef %151, ptr noundef %152, i32 noundef 37, i32 noundef %153, i32 noundef %154, ptr noundef @.str.282, ptr noundef %155)
  %157 = zext i16 %156 to i32
  store i32 %157, ptr %14, align 4
  %158 = icmp ugt i32 %157, 0
  br i1 %158, label %159, label %166

159:                                              ; preds = %149
  %160 = load i32, ptr %14, align 4
  %161 = load i32, ptr %13, align 4
  %162 = add i32 %161, %160
  store i32 %162, ptr %13, align 4
  %163 = load i32, ptr %14, align 4
  %164 = load i32, ptr %15, align 4
  %165 = sub i32 %164, %163
  store i32 %165, ptr %15, align 4
  br label %166

166:                                              ; preds = %159, %149
  %167 = load i32, ptr %15, align 4
  %168 = icmp ule i32 %167, 0
  br i1 %168, label %169, label %170

169:                                              ; preds = %166
  store i32 1, ptr %16, align 4
  br label %249

170:                                              ; preds = %166
  %171 = load ptr, ptr %7, align 8
  %172 = load ptr, ptr %8, align 8
  %173 = load ptr, ptr %9, align 8
  %174 = load i32, ptr %13, align 4
  %175 = load i32, ptr %15, align 4
  %176 = load ptr, ptr %12, align 8
  %177 = call zeroext i16 @elem_tlv(ptr noundef %171, ptr noundef %172, ptr noundef %173, i32 noundef 57, i32 noundef %174, i32 noundef %175, ptr noundef @.str.282, ptr noundef %176)
  %178 = zext i16 %177 to i32
  store i32 %178, ptr %14, align 4
  %179 = icmp ugt i32 %178, 0
  br i1 %179, label %180, label %187

180:                                              ; preds = %170
  %181 = load i32, ptr %14, align 4
  %182 = load i32, ptr %13, align 4
  %183 = add i32 %182, %181
  store i32 %183, ptr %13, align 4
  %184 = load i32, ptr %14, align 4
  %185 = load i32, ptr %15, align 4
  %186 = sub i32 %185, %184
  store i32 %186, ptr %15, align 4
  br label %187

187:                                              ; preds = %180, %170
  %188 = load i32, ptr %15, align 4
  %189 = icmp ule i32 %188, 0
  br i1 %189, label %190, label %191

190:                                              ; preds = %187
  store i32 1, ptr %16, align 4
  br label %249

191:                                              ; preds = %187
  %192 = load ptr, ptr %7, align 8
  %193 = load ptr, ptr %8, align 8
  %194 = load ptr, ptr %9, align 8
  %195 = load i32, ptr %13, align 4
  %196 = load i32, ptr %15, align 4
  %197 = load ptr, ptr %12, align 8
  %198 = call zeroext i16 @elem_tlv(ptr noundef %192, ptr noundef %193, ptr noundef %194, i32 noundef 88, i32 noundef %195, i32 noundef %196, ptr noundef @.str.282, ptr noundef %197)
  %199 = zext i16 %198 to i32
  store i32 %199, ptr %14, align 4
  %200 = icmp ugt i32 %199, 0
  br i1 %200, label %201, label %208

201:                                              ; preds = %191
  %202 = load i32, ptr %14, align 4
  %203 = load i32, ptr %13, align 4
  %204 = add i32 %203, %202
  store i32 %204, ptr %13, align 4
  %205 = load i32, ptr %14, align 4
  %206 = load i32, ptr %15, align 4
  %207 = sub i32 %206, %205
  store i32 %207, ptr %15, align 4
  br label %208

208:                                              ; preds = %201, %191
  %209 = load i32, ptr %15, align 4
  %210 = icmp ule i32 %209, 0
  br i1 %210, label %211, label %212

211:                                              ; preds = %208
  store i32 1, ptr %16, align 4
  br label %249

212:                                              ; preds = %208
  %213 = load ptr, ptr %7, align 8
  %214 = load ptr, ptr %8, align 8
  %215 = load ptr, ptr %9, align 8
  %216 = load i32, ptr %13, align 4
  %217 = load i32, ptr %15, align 4
  %218 = load ptr, ptr %12, align 8
  %219 = call zeroext i16 @elem_tlv(ptr noundef %213, ptr noundef %214, ptr noundef %215, i32 noundef 89, i32 noundef %216, i32 noundef %217, ptr noundef @.str.282, ptr noundef %218)
  %220 = zext i16 %219 to i32
  store i32 %220, ptr %14, align 4
  %221 = icmp ugt i32 %220, 0
  br i1 %221, label %222, label %229

222:                                              ; preds = %212
  %223 = load i32, ptr %14, align 4
  %224 = load i32, ptr %13, align 4
  %225 = add i32 %224, %223
  store i32 %225, ptr %13, align 4
  %226 = load i32, ptr %14, align 4
  %227 = load i32, ptr %15, align 4
  %228 = sub i32 %227, %226
  store i32 %228, ptr %15, align 4
  br label %229

229:                                              ; preds = %222, %212
  %230 = load i32, ptr %15, align 4
  %231 = icmp ule i32 %230, 0
  br i1 %231, label %232, label %233

232:                                              ; preds = %229
  store i32 1, ptr %16, align 4
  br label %249

233:                                              ; preds = %229
  %234 = load i32, ptr %15, align 4
  %235 = icmp ugt i32 %234, 0
  br i1 %235, label %236, label %248

236:                                              ; preds = %233
  %237 = load ptr, ptr %9, align 8
  %238 = load ptr, ptr %8, align 8
  %239 = load ptr, ptr %7, align 8
  %240 = load i32, ptr %13, align 4
  %241 = load i32, ptr %15, align 4
  %242 = sub i32 %241, 0
  %243 = call ptr @proto_tree_add_expert(ptr noundef %237, ptr noundef %238, ptr noundef @ei_ansi_a_extraneous_data, ptr noundef %239, i32 noundef %240, i32 noundef %242)
  %244 = load i32, ptr %15, align 4
  %245 = sub i32 %244, 0
  %246 = load i32, ptr %13, align 4
  %247 = add i32 %246, %245
  store i32 %247, ptr %13, align 4
  br label %248

248:                                              ; preds = %236, %233
  store i32 0, ptr %16, align 4
  br label %249

249:                                              ; preds = %248, %232, %211, %190, %169, %148, %128, %107, %87, %52
  call void @llvm.lifetime.end.p0(i64 4, ptr %15) #8
  call void @llvm.lifetime.end.p0(i64 4, ptr %14) #8
  call void @llvm.lifetime.end.p0(i64 4, ptr %13) #8
  %250 = load i32, ptr %16, align 4
  switch i32 %250, label %252 [
    i32 0, label %251
    i32 1, label %251
  ]

251:                                              ; preds = %249, %249
  ret void

252:                                              ; preds = %249
  unreachable
}