; Function Attrs: null_pointer_is_valid sspstrong uwtable
define internal void @bsmap_adds_page(ptr noundef %0, ptr noundef %1, ptr noundef %2, i32 noundef %3, i32 noundef %4, ptr noundef %5) #1 {
  %7 = tail call fastcc zeroext i16 @elem_tlv(ptr noundef %0, ptr noundef %1, ptr noundef %2, i32 noundef 47, i32 noundef %3, ptr noundef nonnull @.str.282, ptr noundef %5)
  %.not = icmp eq i16 %7, 0
  br i1 %.not, label %12, label %8

8:                                                ; preds = %6
  %9 = zext i16 %7 to i32
  %10 = add i32 %3, %9
  %11 = sub i32 %4, %9
  br label %19

12:                                               ; preds = %6
  %13 = load ptr, ptr @ansi_a_elem_1_strings, align 8
  %14 = getelementptr i8, ptr %13, i64 1128
  %15 = load i32, ptr %14, align 8
  %16 = getelementptr i8, ptr %13, i64 1136
  %17 = load ptr, ptr %16, align 8
  %18 = tail call ptr (ptr, ptr, ptr, ptr, i32, i32, ptr, ...) @proto_tree_add_expert_format(ptr noundef %2, ptr noundef %1, ptr noundef nonnull @ei_ansi_a_missing_mand_elem, ptr noundef %0, i32 noundef %3, i32 noundef 0, ptr noundef nonnull @.str.1753, i32 noundef %15, ptr noundef %17, ptr noundef nonnull @.str.282)
  br label %19

19:                                               ; preds = %12, %8
  %.0114 = phi i32 [ %10, %8 ], [ %3, %12 ]
  %.0 = phi i32 [ %11, %8 ], [ %4, %12 ]
  %20 = icmp eq i32 %.0, 0
  br i1 %20, label %78, label %21

21:                                               ; preds = %19
  %22 = tail call fastcc zeroext i16 @elem_tlv(ptr noundef %0, ptr noundef %1, ptr noundef %2, i32 noundef 1, i32 noundef %.0114, ptr noundef nonnull @.str.282, ptr noundef %5)
  %.not132 = icmp eq i16 %22, 0
  br i1 %.not132, label %.thread, label %29

.thread:                                          ; preds = %21
  %23 = load ptr, ptr @ansi_a_elem_1_strings, align 8
  %24 = getelementptr i8, ptr %23, i64 24
  %25 = load i32, ptr %24, align 8
  %26 = getelementptr i8, ptr %23, i64 32
  %27 = load ptr, ptr %26, align 8
  %28 = tail call ptr (ptr, ptr, ptr, ptr, i32, i32, ptr, ...) @proto_tree_add_expert_format(ptr noundef %2, ptr noundef %1, ptr noundef nonnull @ei_ansi_a_missing_mand_elem, ptr noundef %0, i32 noundef %.0114, i32 noundef 0, ptr noundef nonnull @.str.1753, i32 noundef %25, ptr noundef %27, ptr noundef nonnull @.str.282)
  br label %34

29:                                               ; preds = %21
  %30 = zext i16 %22 to i32
  %31 = add i32 %.0114, %30
  %32 = sub i32 %.0, %30
  %33 = icmp eq i32 %32, 0
  br i1 %33, label %78, label %34

34:                                               ; preds = %.thread, %29
  %.1143 = phi i32 [ %.0, %.thread ], [ %32, %29 ]
  %.1115142 = phi i32 [ %.0114, %.thread ], [ %31, %29 ]
  %35 = tail call fastcc zeroext i16 @elem_tv(ptr noundef %0, ptr noundef %1, ptr noundef %2, i32 noundef 78, i32 noundef %.1115142, ptr noundef %5)
  %36 = zext i16 %35 to i32
  %37 = icmp eq i32 %.1143, %36
  br i1 %37, label %78, label %38

38:                                               ; preds = %34
  %39 = sub i32 %.1143, %36
  %40 = add i32 %.1115142, %36
  %41 = tail call fastcc zeroext i16 @elem_tlv(ptr noundef %0, ptr noundef %1, ptr noundef %2, i32 noundef 19, i32 noundef %40, ptr noundef nonnull @.str.282, ptr noundef %5)
  %42 = zext i16 %41 to i32
  %43 = icmp eq i32 %39, %42
  br i1 %43, label %78, label %44

44:                                               ; preds = %38
  %45 = add i32 %40, %42
  %46 = tail call fastcc zeroext i16 @elem_tv(ptr noundef %0, ptr noundef %1, ptr noundef %2, i32 noundef 74, i32 noundef %45, ptr noundef %5)
  %47 = zext i16 %46 to i32
  %48 = add nuw nsw i32 %47, %42
  %49 = icmp eq i32 %39, %48
  br i1 %49, label %78, label %50

50:                                               ; preds = %44
  %51 = sub i32 %39, %48
  %52 = add i32 %45, %47
  %53 = tail call fastcc zeroext i16 @elem_tlv(ptr noundef %0, ptr noundef %1, ptr noundef %2, i32 noundef 37, i32 noundef %52, ptr noundef nonnull @.str.282, ptr noundef %5)
  %54 = zext i16 %53 to i32
  %55 = icmp eq i32 %51, %54
  br i1 %55, label %78, label %56

56:                                               ; preds = %50
  %57 = sub i32 %51, %54
  %58 = add i32 %52, %54
  %59 = tail call fastcc zeroext i16 @elem_tlv(ptr noundef %0, ptr noundef %1, ptr noundef %2, i32 noundef 57, i32 noundef %58, ptr noundef nonnull @.str.282, ptr noundef %5)
  %60 = zext i16 %59 to i32
  %61 = icmp eq i32 %57, %60
  br i1 %61, label %78, label %62

62:                                               ; preds = %56
  %63 = sub i32 %57, %60
  %64 = add i32 %58, %60
  %65 = tail call fastcc zeroext i16 @elem_tlv(ptr noundef %0, ptr noundef %1, ptr noundef %2, i32 noundef 88, i32 noundef %64, ptr noundef nonnull @.str.282, ptr noundef %5)
  %66 = zext i16 %65 to i32
  %67 = icmp eq i32 %63, %66
  br i1 %67, label %78, label %68

68:                                               ; preds = %62
  %69 = sub i32 %63, %66
  %70 = add i32 %64, %66
  %71 = tail call fastcc zeroext i16 @elem_tlv(ptr noundef %0, ptr noundef %1, ptr noundef %2, i32 noundef 89, i32 noundef %70, ptr noundef nonnull @.str.282, ptr noundef %5)
  %72 = zext i16 %71 to i32
  %73 = icmp eq i32 %69, %72
  br i1 %73, label %78, label %74

74:                                               ; preds = %68
  %75 = sub i32 %69, %72
  %76 = add i32 %70, %72
  %77 = tail call ptr @proto_tree_add_expert(ptr noundef %2, ptr noundef %1, ptr noundef nonnull @ei_ansi_a_extraneous_data, ptr noundef %0, i32 noundef %76, i32 noundef %75)
  br label %78

78:                                               ; preds = %68, %62, %56, %50, %44, %38, %34, %29, %19, %74
  ret void
}